target datalayout = "e-m:e-p270:32:32-p271:32:32-p272:64:64-i64:64-i128:128-f80:128-n8:16:32:64-S128"
target triple = "x86_64-pc-linux-gnu"

%"class.google::protobuf::DescriptorDatabase" = type { ptr }
%"class.google::protobuf::DescriptorPoolDatabase" = type { %"class.google::protobuf::DescriptorDatabase", ptr }
%"class.google::protobuf::FieldDescriptor" = type { %"class.google::protobuf::internal::SymbolBase", i8, i8, i8, i32, ptr, ptr, ptr, ptr, %union.anon.99, %union.anon.100, ptr, %union.anon.101 }
%"class.google::protobuf::internal::SymbolBase" = type { i8 }
%union.anon.99 = type { ptr }
%union.anon.100 = type { ptr }
%union.anon.101 = type { i64 }

; Function Attrs: inlinehint mustprogress nounwind uwtable
define linkonce_odr hidden noundef ptr @_ZNK6google8protobuf15FieldDescriptor4fileEv(ptr noundef nonnull align 8 dereferenceable(72) %0) #7 comdat align 2 {
  %2 = alloca ptr, align 8
  store ptr %0, ptr %2, align 8, !tbaa !219
  %3 = load ptr, ptr %2, align 8
  %4 = getelementptr inbounds nuw %"class.google::protobuf::FieldDescriptor", ptr %3, i32 0, i32 6
  %5 = load ptr, ptr %4, align 8, !tbaa !221
  ret ptr %5
}

; Function Attrs: mustprogress uwtable
define hidden noundef zeroext i1 @_ZN6google8protobuf22DescriptorPoolDatabase27FindFileContainingExtensionERKNSt7__cxx1112basic_stringIcSt11char_traitsIcESaIcEEEiPNS0_19FileDescriptorProtoE(ptr noundef nonnull align 8 dereferenceable(16) %0, ptr noundef nonnull align 8 dereferenceable(32) %1, i32 noundef %2, ptr noundef %3) unnamed_addr #6 align 2 {
  %5 = alloca i1, align 1
  %6 = alloca ptr, align 8
  %7 = alloca ptr, align 8
  %8 = alloca i32, align 4
  %9 = alloca ptr, align 8
  %10 = alloca ptr, align 8
  %11 = alloca i32, align 4
  %12 = alloca ptr, align 8
  store ptr %0, ptr %6, align 8, !tbaa !209
  store ptr %1, ptr %7, align 8, !tbaa !12
  store i32 %2, ptr %8, align 4, !tbaa !30
  store ptr %3, ptr %9, align 8, !tbaa !24
  %13 = load ptr, ptr %6, align 8
  call void @llvm.lifetime.start.p0(i64 8, ptr %10) #3
  %14 = getelementptr inbounds nuw %"class.google::protobuf::DescriptorPoolDatabase", ptr %13, i32 0, i32 1
  %15 = load ptr, ptr %14, align 8, !tbaa !212
  %16 = load ptr, ptr %7, align 8, !tbaa !12
  %17 = call noundef ptr @_ZNK6google8protobuf14DescriptorPool21FindMessageTypeByNameERKNSt7__cxx1112basic_stringIcSt11char_traitsIcESaIcEEE(ptr noundef nonnull align 8 dereferenceable(96) %15, ptr noundef nonnull align 8 dereferenceable(32) %16)
  store ptr %17, ptr %10, align 8, !tbaa !217
  %18 = load ptr, ptr %10, align 8, !tbaa !217
  %19 = icmp eq ptr %18, null
  br i1 %19, label %20, label %21

20:                                               ; preds = %4
  store i1 false, ptr %5, align 1
  store i32 1, ptr %11, align 4
  br label %36

21:                                               ; preds = %4
  call void @llvm.lifetime.start.p0(i64 8, ptr %12) #3
  %22 = getelementptr inbounds nuw %"class.google::protobuf::DescriptorPoolDatabase", ptr %13, i32 0, i32 1
  %23 = load ptr, ptr %22, align 8, !tbaa !212
  %24 = load ptr, ptr %10, align 8, !tbaa !217
  %25 = load i32, ptr %8, align 4, !tbaa !30
  %26 = call noundef ptr @_ZNK6google8protobuf14DescriptorPool21FindExtensionByNumberEPKNS0_10DescriptorEi(ptr noundef nonnull align 8 dereferenceable(96) %23, ptr noundef %24, i32 noundef %25)
  store ptr %26, ptr %12, align 8, !tbaa !219
  %27 = load ptr, ptr %12, align 8, !tbaa !219
  %28 = icmp eq ptr %27, null
  br i1 %28, label %29, label %30

29:                                               ; preds = %21
  store i1 false, ptr %5, align 1
  store i32 1, ptr %11, align 4
  br label %35

30:                                               ; preds = %21
  %31 = load ptr, ptr %9, align 8, !tbaa !24
  call void @_ZN6google8protobuf19FileDescriptorProto5ClearEv(ptr noundef nonnull align 8 dereferenceable(216) %31)
  %32 = load ptr, ptr %12, align 8, !tbaa !219
  %33 = call noundef ptr @_ZNK6google8protobuf15FieldDescriptor4fileEv(ptr noundef nonnull align 8 dereferenceable(72) %32)
  %34 = load ptr, ptr %9, align 8, !tbaa !24
  call void @_ZNK6google8protobuf14FileDescriptor6CopyToEPNS0_19FileDescriptorProtoE(ptr noundef nonnull align 8 dereferenceable(144) %33, ptr noundef %34)
  store i1 true, ptr %5, align 1
  store i32 1, ptr %11, align 4
  br label %35

35:                                               ; preds = %30, %29
  call void @llvm.lifetime.end.p0(i64 8, ptr %12) #3
  br label %36

36:                                               ; preds = %35, %20
  call void @llvm.lifetime.end.p0(i64 8, ptr %10) #3
  %37 = load i1, ptr %5, align 1
  ret i1 %37
}