; Function Attrs: mustprogress uwtable
define hidden noundef zeroext i1 @_ZN6google8protobuf22DescriptorPoolDatabase27FindFileContainingExtensionERKNSt7__cxx1112basic_stringIcSt11char_traitsIcESaIcEEEiPNS0_19FileDescriptorProtoE(ptr noundef nonnull readonly align 8 captures(none) dereferenceable(16) %0, ptr noundef nonnull align 8 dereferenceable(32) %1, i32 noundef %2, ptr noundef %3) unnamed_addr #6 align 2 {
  %5 = getelementptr inbounds nuw i8, ptr %0, i64 8
  %6 = load ptr, ptr %5, align 8, !tbaa !242
  %7 = tail call noundef ptr @_ZNK6google8protobuf14DescriptorPool21FindMessageTypeByNameERKNSt7__cxx1112basic_stringIcSt11char_traitsIcESaIcEEE(ptr noundef nonnull align 8 dereferenceable(96) %6, ptr noundef nonnull align 8 dereferenceable(32) %1)
  %8 = icmp eq ptr %7, null
  br i1 %8, label %15, label %9

9:                                                ; preds = %4
  %10 = load ptr, ptr %5, align 8, !tbaa !242
  %11 = tail call noundef ptr @_ZNK6google8protobuf14DescriptorPool21FindExtensionByNumberEPKNS0_10DescriptorEi(ptr noundef nonnull align 8 dereferenceable(96) %10, ptr noundef nonnull %7, i32 noundef %2)
  %.not = icmp eq ptr %11, null
  br i1 %.not, label %15, label %12

12:                                               ; preds = %9
  tail call void @_ZN6google8protobuf19FileDescriptorProto5ClearEv(ptr noundef nonnull align 8 dereferenceable(216) %3)
  %13 = getelementptr inbounds nuw i8, ptr %11, i64 16
  %14 = load ptr, ptr %13, align 8, !tbaa !245
  tail call void @_ZNK6google8protobuf14FileDescriptor6CopyToEPNS0_19FileDescriptorProtoE(ptr noundef nonnull align 8 dereferenceable(144) %14, ptr noundef nonnull %3)
  br label %15

15:                                               ; preds = %12, %9, %4
  %.0 = phi i1 [ false, %4 ], [ false, %9 ], [ true, %12 ]
  ret i1 %.0
}